target datalayout = "e-m:e-p270:32:32-p271:32:32-p272:64:64-i64:64-i128:128-f80:128-n8:16:32:64-S128"
target triple = "x86_64-pc-linux-gnu"

%"class.icu_77::StringPiece" = type <{ ptr, i32, [4 x i8] }>
%"class.icu_77::double_conversion::StringToDoubleConverter" = type <{ i32, [4 x i8], double, double, ptr, ptr, i16, [6 x i8] }>

@.str.20 = private unnamed_addr constant [1 x i8] zeroinitializer, align 1

; Function Attrs: mustprogress nounwind uwtable
define linkonce_odr noundef i32 @_ZNK6icu_7711StringPiece6lengthEv(ptr noundef nonnull align 8 dereferenceable(12) %0) #0 comdat align 2 {
  %2 = alloca ptr, align 8
  store ptr %0, ptr %2, align 8, !tbaa !132
  %3 = load ptr, ptr %2, align 8
  %4 = getelementptr inbounds nuw %"class.icu_77::StringPiece", ptr %3, i32 0, i32 1
  %5 = load i32, ptr %4, align 8, !tbaa !136
  ret i32 %5
}

; Function Attrs: mustprogress nounwind uwtable
define linkonce_odr noundef ptr @_ZNK6icu_7711StringPiece4dataEv(ptr noundef nonnull align 8 dereferenceable(12) %0) #0 comdat align 2 {
  %2 = alloca ptr, align 8
  store ptr %0, ptr %2, align 8, !tbaa !132
  %3 = load ptr, ptr %2, align 8
  %4 = getelementptr inbounds nuw %"class.icu_77::StringPiece", ptr %3, i32 0, i32 0
  %5 = load ptr, ptr %4, align 8, !tbaa !134
  ret ptr %5
}

; Function Attrs: mustprogress nounwind uwtable
define linkonce_odr void @_ZN6icu_7717double_conversion23StringToDoubleConverterC2EiddPKcS3_t(ptr noundef nonnull align 8 dereferenceable(42) %0, i32 noundef %1, double noundef %2, double noundef %3, ptr noundef %4, ptr noundef %5, i16 noundef zeroext %6) unnamed_addr #0 comdat align 2 {
  %8 = alloca ptr, align 8
  %9 = alloca i32, align 4
  %10 = alloca double, align 8
  %11 = alloca double, align 8
  %12 = alloca ptr, align 8
  %13 = alloca ptr, align 8
  %14 = alloca i16, align 2
  store ptr %0, ptr %8, align 8, !tbaa !121
  store i32 %1, ptr %9, align 4, !tbaa !14
  store double %2, ptr %10, align 8, !tbaa !32
  store double %3, ptr %11, align 8, !tbaa !32
  store ptr %4, ptr %12, align 8, !tbaa !17
  store ptr %5, ptr %13, align 8, !tbaa !17
  store i16 %6, ptr %14, align 2, !tbaa !123
  %15 = load ptr, ptr %8, align 8
  %16 = getelementptr inbounds nuw %"class.icu_77::double_conversion::StringToDoubleConverter", ptr %15, i32 0, i32 0
  %17 = load i32, ptr %9, align 4, !tbaa !14
  store i32 %17, ptr %16, align 8, !tbaa !125
  %18 = getelementptr inbounds nuw %"class.icu_77::double_conversion::StringToDoubleConverter", ptr %15, i32 0, i32 2
  %19 = load double, ptr %10, align 8, !tbaa !32
  store double %19, ptr %18, align 8, !tbaa !127
  %20 = getelementptr inbounds nuw %"class.icu_77::double_conversion::StringToDoubleConverter", ptr %15, i32 0, i32 3
  %21 = load double, ptr %11, align 8, !tbaa !32
  store double %21, ptr %20, align 8, !tbaa !128
  %22 = getelementptr inbounds nuw %"class.icu_77::double_conversion::StringToDoubleConverter", ptr %15, i32 0, i32 4
  %23 = load ptr, ptr %12, align 8, !tbaa !17
  store ptr %23, ptr %22, align 8, !tbaa !129
  %24 = getelementptr inbounds nuw %"class.icu_77::double_conversion::StringToDoubleConverter", ptr %15, i32 0, i32 5
  %25 = load ptr, ptr %13, align 8, !tbaa !17
  store ptr %25, ptr %24, align 8, !tbaa !130
  %26 = getelementptr inbounds nuw %"class.icu_77::double_conversion::StringToDoubleConverter", ptr %15, i32 0, i32 6
  %27 = load i16, ptr %14, align 2, !tbaa !123
  store i16 %27, ptr %26, align 8, !tbaa !131
  ret void
}

; Function Attrs: mustprogress uwtable
define internal noundef double @_ZN6icu_775units12_GLOBAL__N_111strToDoubleENS_11StringPieceER10UErrorCode(ptr %0, i32 %1, ptr noundef nonnull align 4 dereferenceable(4) %2) #1 {
  %4 = alloca %"class.icu_77::StringPiece", align 8
  %5 = alloca ptr, align 8
  %6 = alloca %"class.icu_77::double_conversion::StringToDoubleConverter", align 8
  %7 = alloca i32, align 4
  %8 = alloca double, align 8
  %9 = getelementptr inbounds nuw { ptr, i32 }, ptr %4, i32 0, i32 0
  store ptr %0, ptr %9, align 8
  %10 = getelementptr inbounds nuw { ptr, i32 }, ptr %4, i32 0, i32 1
  store i32 %1, ptr %10, align 8
  store ptr %2, ptr %5, align 8, !tbaa !22
  call void @llvm.lifetime.start.p0(i64 48, ptr %6) #12
  call void @_ZN6icu_7717double_conversion23StringToDoubleConverterC2EiddPKcS3_t(ptr noundef nonnull align 8 dereferenceable(42) %6, i32 noundef 0, double noundef 0.000000e+00, double noundef 0.000000e+00, ptr noundef @.str.20, ptr noundef @.str.20, i16 noundef zeroext 0)
  call void @llvm.lifetime.start.p0(i64 4, ptr %7) #12
  call void @llvm.lifetime.start.p0(i64 8, ptr %8) #12
  %11 = call noundef ptr @_ZNK6icu_7711StringPiece4dataEv(ptr noundef nonnull align 8 dereferenceable(12) %4)
  %12 = call noundef i32 @_ZNK6icu_7711StringPiece6lengthEv(ptr noundef nonnull align 8 dereferenceable(12) %4)
  %13 = call noundef double @_ZNK6icu_7717double_conversion23StringToDoubleConverter14StringToDoubleEPKciPi(ptr noundef nonnull align 8 dereferenceable(42) %6, ptr noundef %11, i32 noundef %12, ptr noundef %7)
  store double %13, ptr %8, align 8, !tbaa !32
  %14 = load i32, ptr %7, align 4, !tbaa !14
  %15 = call noundef i32 @_ZNK6icu_7711StringPiece6lengthEv(ptr noundef nonnull align 8 dereferenceable(12) %4)
  %16 = icmp ne i32 %14, %15
  br i1 %16, label %17, label %19

17:                                               ; preds = %3
  %18 = load ptr, ptr %5, align 8, !tbaa !22
  store i32 3, ptr %18, align 4, !tbaa !15
  br label %19

19:                                               ; preds = %17, %3
  %20 = load double, ptr %8, align 8, !tbaa !32
  call void @llvm.lifetime.end.p0(i64 8, ptr %8) #12
  call void @llvm.lifetime.end.p0(i64 4, ptr %7) #12
  call void @llvm.lifetime.end.p0(i64 48, ptr %6) #12
  ret double %20
}