; Function Attrs: mustprogress uwtable
define internal fastcc noundef double @_ZN6icu_775units12_GLOBAL__N_111strToDoubleENS_11StringPieceER10UErrorCode(ptr %0, i32 %1, ptr noundef nonnull writeonly align 4 captures(none) dereferenceable(4) %2) unnamed_addr #1 {
  %4 = alloca %"class.icu_77::double_conversion::StringToDoubleConverter", align 8
  %5 = alloca i32, align 4
  call void @llvm.lifetime.start.p0(i64 48, ptr nonnull %4) #21
  store i32 0, ptr %4, align 8, !tbaa !27
  %6 = getelementptr inbounds nuw i8, ptr %4, i64 8
  %7 = getelementptr inbounds nuw i8, ptr %4, i64 24
  call void @llvm.memset.p0.i64(ptr noundef nonnull align 8 dereferenceable(16) %6, i8 0, i64 16, i1 false)
  store ptr @.str.20, ptr %7, align 8, !tbaa !30
  %8 = getelementptr inbounds nuw i8, ptr %4, i64 32
  store ptr @.str.20, ptr %8, align 8, !tbaa !31
  %9 = getelementptr inbounds nuw i8, ptr %4, i64 40
  store i16 0, ptr %9, align 8, !tbaa !32
  call void @llvm.lifetime.start.p0(i64 4, ptr nonnull %5) #21
  %10 = call noundef double @_ZNK6icu_7717double_conversion23StringToDoubleConverter14StringToDoubleEPKciPi(ptr noundef nonnull align 8 dereferenceable(42) %4, ptr noundef %0, i32 noundef %1, ptr noundef nonnull %5)
  %11 = load i32, ptr %5, align 4, !tbaa !12
  %.not = icmp eq i32 %11, %1
  br i1 %.not, label %13, label %12

12:                                               ; preds = %3
  store i32 3, ptr %2, align 4, !tbaa !13
  br label %13

13:                                               ; preds = %12, %3
  call void @llvm.lifetime.end.p0(i64 4, ptr nonnull %5) #21
  call void @llvm.lifetime.end.p0(i64 48, ptr nonnull %4) #21
  ret double %10
}